	.file	"inline.c"
	.text
	.section .rdata,"dr"
.LC0:
	.ascii "open inline\0"
	.text
	.globl	doA
	.def	doA;	.scl	2;	.type	32;	.endef
	.seh_proc	doA
doA:
	pushq	%rbp
	.seh_pushreg	%rbp
	movq	%rsp, %rbp
	.seh_setframe	%rbp, 0
	subq	$32, %rsp
	.seh_stackalloc	32
	.seh_endprologue
	leaq	.LC0(%rip), %rcx
	call	puts
	nop
	addq	$32, %rsp
	popq	%rbp
	ret
	.seh_endproc
	.section .rdata,"dr"
.LC1:
	.ascii "not open inline\0"
	.text
	.globl	doB
	.def	doB;	.scl	2;	.type	32;	.endef
	.seh_proc	doB
doB:
	pushq	%rbp
	.seh_pushreg	%rbp
	movq	%rsp, %rbp
	.seh_setframe	%rbp, 0
	subq	$32, %rsp
	.seh_stackalloc	32
	.seh_endprologue
	leaq	.LC1(%rip), %rcx
	call	puts
	nop
	addq	$32, %rsp
	popq	%rbp
	ret
	.seh_endproc
	.def	__main;	.scl	2;	.type	32;	.endef
	.globl	main
	.def	main;	.scl	2;	.type	32;	.endef
	.seh_proc	main
main:
	pushq	%rbp
	.seh_pushreg	%rbp
	movq	%rsp, %rbp
	.seh_setframe	%rbp, 0
	subq	$32, %rsp
	.seh_stackalloc	32
	.seh_endprologue
	call	__main
	call	doA
	call	doB
	movl	$0, %eax
	addq	$32, %rsp
	popq	%rbp
	ret
	.seh_endproc
	.ident	"GCC: (x86_64-posix-seh-rev0, Built by MinGW-W64 project) 8.1.0"
	.def	puts;	.scl	2;	.type	32;	.endef
